#include <math.h>
#include <stdio.h>
#include <stdlib.h>
#include <string.h>

int main()
{
    int x1,y1,x2,y2,i,j,k;
    int a[101][101];
    int b[101][101];
    int c[101][101];
    scanf("%d %d",&x1,&y1);
    for(i=1;i<=x1;i++)
    {
        for(j=1;j<=y1;j++)
        scanf("%d",&a[i][j]);
    }
    scanf("%d %d",&x2,&y2);
    for(i=1;i<=x2;i++)
    {
        for(j=1;j<=y2;j++)
        scanf("%d",&b[i][j]);
    }
    for(i=1;i<=x1;i++)
    {
        for(j=1;j<=y2;j++)
        {
            c[i][j]=0;
            for(k=1;k<=y1;k++)
            c[i][j]=c[i][j]+a[i][k]*b[k][j];
        }
    }
    for(i=1;i<=x1;i++)
    {
        for(j=1;j<=y2-1;j++)
        printf("%d ",c[i][j]);
        printf("%d\n",c[i][y2]);
    }
    return 0;
}